; ModuleID = 'source-C-CXX/18/356.c'
source_filename = "source-C-CXX/18/356.c"
target datalayout = "e-m:e-p270:32:32-p271:32:32-p272:64:64-i64:64-f80:128-n8:16:32:64-S128"
target triple = "x86_64-pc-linux-gnu"

@.str = private unnamed_addr constant [5 x i8] c"%s%s\00", align 1
@.str.1 = private unnamed_addr constant [3 x i8] c"%s\00", align 1

; Function Attrs: nounwind sspstrong uwtable
define dso_local void @main() local_unnamed_addr #0 {
  %1 = alloca [150 x i8], align 16
  %2 = alloca [100 x i8], align 16
  %3 = alloca [100 x i8], align 16
  %4 = getelementptr inbounds [150 x i8], [150 x i8]* %1, i64 0, i64 0
  call void @llvm.lifetime.start.p0i8(i64 150, i8* nonnull %4) #5
  %5 = getelementptr inbounds [100 x i8], [100 x i8]* %2, i64 0, i64 0
  call void @llvm.lifetime.start.p0i8(i64 100, i8* nonnull %5) #5
  %6 = getelementptr inbounds [100 x i8], [100 x i8]* %3, i64 0, i64 0
  call void @llvm.lifetime.start.p0i8(i64 100, i8* nonnull %6) #5
  %7 = call i32 (i8*, ...) bitcast (i32 (...)* @gets to i32 (i8*, ...)*)(i8* nonnull %4) #5
  %8 = call i32 (i8*, ...) bitcast (i32 (...)* @gets to i32 (i8*, ...)*)(i8* nonnull %5) #5
  %9 = call i32 (i8*, ...) bitcast (i32 (...)* @gets to i32 (i8*, ...)*)(i8* nonnull %6) #5
  %10 = call i8* @strstr(i8* noundef nonnull dereferenceable(1) %4, i8* noundef nonnull %5) #6
  %11 = icmp eq i8* %10, null
  br i1 %11, label %37, label %12

12:                                               ; preds = %0, %30
  %13 = phi i8* [ %35, %30 ], [ %10, %0 ]
  %14 = phi i8* [ %34, %30 ], [ %4, %0 ]
  store i8 0, i8* %13, align 1, !tbaa !5
  %15 = getelementptr inbounds i8, i8* %13, i64 -1
  %16 = load i8, i8* %15, align 1, !tbaa !5
  %17 = icmp ne i8 %16, 32
  %18 = icmp ugt i8* %15, %4
  %19 = and i1 %18, %17
  br i1 %19, label %30, label %20

20:                                               ; preds = %12
  %21 = call i64 @strlen(i8* noundef nonnull %5) #6
  %22 = getelementptr inbounds i8, i8* %13, i64 %21
  %23 = load i8, i8* %22, align 1, !tbaa !5
  %24 = icmp eq i8 %23, 32
  br i1 %24, label %29, label %25

25:                                               ; preds = %20
  %26 = call i64 @strlen(i8* noundef nonnull %4) #6
  %27 = getelementptr inbounds [150 x i8], [150 x i8]* %1, i64 0, i64 %26
  %28 = icmp ult i8* %22, %27
  br i1 %28, label %30, label %29

29:                                               ; preds = %25, %20
  br label %30

30:                                               ; preds = %25, %12, %29
  %31 = phi i8* [ %6, %29 ], [ %5, %12 ], [ %5, %25 ]
  %32 = call i32 (i8*, ...) @printf(i8* nonnull dereferenceable(1) getelementptr inbounds ([5 x i8], [5 x i8]* @.str, i64 0, i64 0), i8* %14, i8* nonnull %31)
  %33 = call i64 @strlen(i8* noundef nonnull %5) #6
  %34 = getelementptr inbounds i8, i8* %13, i64 %33
  %35 = call i8* @strstr(i8* noundef nonnull dereferenceable(1) %34, i8* noundef nonnull %5) #6
  %36 = icmp eq i8* %35, null
  br i1 %36, label %37, label %12, !llvm.loop !8

37:                                               ; preds = %30, %0
  %38 = phi i8* [ %4, %0 ], [ %34, %30 ]
  %39 = call i32 (i8*, ...) @printf(i8* nonnull dereferenceable(1) getelementptr inbounds ([3 x i8], [3 x i8]* @.str.1, i64 0, i64 0), i8* %38)
  call void @llvm.lifetime.end.p0i8(i64 100, i8* nonnull %6) #5
  call void @llvm.lifetime.end.p0i8(i64 100, i8* nonnull %5) #5
  call void @llvm.lifetime.end.p0i8(i64 150, i8* nonnull %4) #5
  ret void
}

; Function Attrs: argmemonly mustprogress nofree nosync nounwind willreturn
declare void @llvm.lifetime.start.p0i8(i64 immarg, i8* nocapture) #1

declare i32 @gets(...) local_unnamed_addr #2

; Function Attrs: argmemonly mustprogress nofree nounwind readonly willreturn
declare i8* @strstr(i8*, i8* nocapture) local_unnamed_addr #3

; Function Attrs: argmemonly mustprogress nofree nounwind readonly willreturn
declare i64 @strlen(i8* nocapture) local_unnamed_addr #3

; Function Attrs: nofree nounwind
declare noundef i32 @printf(i8* nocapture noundef readonly, ...) local_unnamed_addr #4

; Function Attrs: argmemonly mustprogress nofree nosync nounwind willreturn
declare void @llvm.lifetime.end.p0i8(i64 immarg, i8* nocapture) #1


!llvm.module.flags = !{!0, !1, !2, !3}
!llvm.ident = !{!4}

!0 = !{i32 1, !"wchar_size", i32 4}
!1 = !{i32 7, !"PIC Level", i32 2}
!2 = !{i32 7, !"PIE Level", i32 2}
!3 = !{i32 7, !"uwtable", i32 1}
!4 = !{!"clang version 13.0.0"}
!5 = !{!6, !6, i64 0}
!6 = !{!"omnipotent char", !7, i64 0}
!7 = !{!"Simple C/C++ TBAA"}
!8 = distinct !{!8, !9}
!9 = !{!"llvm.loop.mustprogress"}
